; Function Attrs: mustprogress uwtable
define noundef i32 @_ZNK6casadi10HorzRepmat7eval_sxEPPKNS_6SXElemEPPS1_PxS5_(ptr noundef nonnull readonly align 8 captures(none) dereferenceable(72) %0, ptr noundef readonly captures(none) %1, ptr noundef readonly captures(none) %2, ptr readnone captures(none) %3, ptr readnone captures(none) %4) unnamed_addr #3 align 2 {
  %6 = getelementptr inbounds nuw i8, ptr %0, i64 32
  %7 = getelementptr inbounds nuw i8, ptr %0, i64 40
  %8 = load ptr, ptr %7, align 8, !tbaa !50
  %9 = load ptr, ptr %6, align 8, !tbaa !51
  %.not.i.i.i.not.i = icmp eq ptr %8, %9
  br i1 %.not.i.i.i.not.i, label %10, label %_ZNK6casadi6MXNode3depEx.exit.i

10:                                               ; preds = %5
  tail call void (ptr, ...) @_ZSt24__throw_out_of_range_fmtPKcz(ptr noundef nonnull @.str.29, i64 noundef 0, i64 noundef 0) #23
  unreachable

_ZNK6casadi6MXNode3depEx.exit.i:                  ; preds = %5
  %11 = tail call noundef nonnull align 8 dereferenceable(8) ptr @_ZNK6casadi2MX8sparsityEv(ptr noundef nonnull align 8 dereferenceable(8) %9)
  %12 = tail call noundef i64 @_ZNK6casadi8Sparsity3nnzEv(ptr noundef nonnull align 8 dereferenceable(8) %11)
  %13 = getelementptr inbounds nuw i8, ptr %0, i64 64
  %14 = load i64, ptr %13, align 8, !tbaa !6
  %15 = icmp sgt i64 %14, 0
  %16 = icmp sgt i64 %12, 0
  %or.cond.i = and i1 %16, %15
  br i1 %or.cond.i, label %.lr.ph.i.i.i.i.i.preheader.us.i, label %_ZNK6casadi10HorzRepmat8eval_genINS_6SXElemEEEiPPKT_PPS3_PxS7_.exit

.lr.ph.i.i.i.i.i.preheader.us.i:                  ; preds = %_ZNK6casadi6MXNode3depEx.exit.i, %_ZSt4copyIPKN6casadi6SXElemEPS1_ET0_T_S6_S5_.exit.loopexit.us.i
  %.08.us.i = phi i64 [ %26, %_ZSt4copyIPKN6casadi6SXElemEPS1_ET0_T_S6_S5_.exit.loopexit.us.i ], [ 0, %_ZNK6casadi6MXNode3depEx.exit.i ]
  %17 = load ptr, ptr %1, align 8, !tbaa !56
  %18 = load ptr, ptr %2, align 8, !tbaa !56
  %19 = mul nuw nsw i64 %.08.us.i, %12
  %20 = getelementptr inbounds nuw %"class.casadi::SXElem", ptr %18, i64 %19
  br label %.lr.ph.i.i.i.i.i.us.i

.lr.ph.i.i.i.i.i.us.i:                            ; preds = %.lr.ph.i.i.i.i.i.us.i, %.lr.ph.i.i.i.i.i.preheader.us.i
  %.012.i.i.i.i.i.us.i = phi i64 [ %24, %.lr.ph.i.i.i.i.i.us.i ], [ %12, %.lr.ph.i.i.i.i.i.preheader.us.i ]
  %.0811.i.i.i.i.i.us.i = phi ptr [ %23, %.lr.ph.i.i.i.i.i.us.i ], [ %20, %.lr.ph.i.i.i.i.i.preheader.us.i ]
  %.0910.i.i.i.i.i.us.i = phi ptr [ %22, %.lr.ph.i.i.i.i.i.us.i ], [ %17, %.lr.ph.i.i.i.i.i.preheader.us.i ]
  %21 = tail call noundef nonnull align 8 dereferenceable(8) ptr @_ZN6casadi6SXElemaSERKS0_(ptr noundef nonnull align 8 dereferenceable(8) %.0811.i.i.i.i.i.us.i, ptr noundef nonnull align 8 dereferenceable(8) %.0910.i.i.i.i.i.us.i)
  %22 = getelementptr inbounds nuw i8, ptr %.0910.i.i.i.i.i.us.i, i64 8
  %23 = getelementptr inbounds nuw i8, ptr %.0811.i.i.i.i.i.us.i, i64 8
  %24 = add nsw i64 %.012.i.i.i.i.i.us.i, -1
  %25 = icmp samesign ugt i64 %.012.i.i.i.i.i.us.i, 1
  br i1 %25, label %.lr.ph.i.i.i.i.i.us.i, label %_ZSt4copyIPKN6casadi6SXElemEPS1_ET0_T_S6_S5_.exit.loopexit.us.i, !llvm.loop !58

_ZSt4copyIPKN6casadi6SXElemEPS1_ET0_T_S6_S5_.exit.loopexit.us.i: ; preds = %.lr.ph.i.i.i.i.i.us.i
  %26 = add nuw nsw i64 %.08.us.i, 1
  %27 = load i64, ptr %13, align 8, !tbaa !6
  %28 = icmp slt i64 %26, %27
  br i1 %28, label %.lr.ph.i.i.i.i.i.preheader.us.i, label %_ZNK6casadi10HorzRepmat8eval_genINS_6SXElemEEEiPPKT_PPS3_PxS7_.exit, !llvm.loop !59

_ZNK6casadi10HorzRepmat8eval_genINS_6SXElemEEEiPPKT_PPS3_PxS7_.exit: ; preds = %_ZSt4copyIPKN6casadi6SXElemEPS1_ET0_T_S6_S5_.exit.loopexit.us.i, %_ZNK6casadi6MXNode3depEx.exit.i
  ret i32 0
}